(dp0
S'09/05/14'
p1
(dp2
I46593
(dp3
S'id'
p4
I46593
sS'estimate'
p5
(dp6
S'h'
p7
I0
sS'm'
p8
I0
ssS'time'
p9
(dp10
g7
I10
sg8
I0
ssS'email'
p11
Vmkulppi@gmail.com
p12
sS'name'
p13
Vmkulppi
p14
ssI52450
(dp15
g4
I52450
sg5
(dp16
g7
F5.0
sg8
I0
ssg9
(dp17
g7
I15
sg8
I0
ssg11
Vmkulppi+bomb@gmail.com
p18
sg13
Vmkulppi+bomb
p19
sss.